; Function Attrs: nounwind uwtable
define range(i32 0, -2147483648) i32 @EVP_PKEY_get_bits(ptr noundef %0) local_unnamed_addr #0 {
  %.not = icmp eq ptr %0, null
  br i1 %.not, label %.thread, label %2

2:                                                ; preds = %1
  %3 = getelementptr inbounds nuw i8, ptr %0, i64 136
  %4 = load i32, ptr %3, align 8, !tbaa !3
  %5 = getelementptr inbounds nuw i8, ptr %0, i64 8
  %6 = load ptr, ptr %5, align 8, !tbaa !20
  %.not12 = icmp eq ptr %6, null
  br i1 %.not12, label %12, label %7

7:                                                ; preds = %2
  %8 = getelementptr inbounds nuw i8, ptr %6, i64 96
  %9 = load ptr, ptr %8, align 8, !tbaa !21
  %.not13 = icmp eq ptr %9, null
  br i1 %.not13, label %12, label %10

10:                                               ; preds = %7
  %11 = tail call i32 %9(ptr noundef nonnull %0) #12
  br label %12

12:                                               ; preds = %2, %7, %10
  %.0 = phi i32 [ %11, %10 ], [ %4, %7 ], [ %4, %2 ]
  %13 = icmp slt i32 %.0, 1
  br i1 %13, label %.thread, label %14

.thread:                                          ; preds = %1, %12
  tail call void @ERR_new() #12
  tail call void @ERR_set_debug(ptr noundef nonnull @.str, i32 noundef 71, ptr noundef nonnull @__func__.EVP_PKEY_get_bits) #12
  tail call void (i32, i32, ptr, ...) @ERR_set_error(i32 noundef 6, i32 noundef 166, ptr noundef null) #12
  br label %14

14:                                               ; preds = %12, %.thread
  %.08 = phi i32 [ 0, %.thread ], [ %.0, %12 ]
  ret i32 %.08
}